target datalayout = "e-m:e-p270:32:32-p271:32:32-p272:64:64-i64:64-i128:128-f80:128-n8:16:32:64-S128"
target triple = "x86_64-unknown-linux-gnu"

%"struct.folly::IOBufQueue::Options" = type { i8 }
%"class.proxygen::QPACKEncoder" = type { %"class.proxygen::HPACKEncoderBase.base", [7 x i8], %"class.proxygen::QPACKContext.base", [4 x i8], %"class.proxygen::HPACKEncodeBuffer", %"class.std::unordered_map", %"struct.proxygen::QPACKEncoder::OutstandingBlock", i32, i32, i32, i32, i64, %"class.folly::IOBufQueue", i32, i32 }
%"class.proxygen::HPACKEncoderBase.base" = type <{ ptr, %"class.proxygen::HPACKEncodeBuffer", i8 }>
%"class.proxygen::QPACKContext.base" = type <{ %"class.proxygen::QPACKHeaderTable", i32, i32, i32 }>
%"class.proxygen::QPACKHeaderTable" = type { %"class.proxygen::HeaderTable", i32, i32, i32, i32, %"class.std::unique_ptr.7" }
%"class.proxygen::HeaderTable" = type { ptr, i32, i32, %"class.std::vector", i32, i32, i32, i8, %"class.folly::F14FastMap" }
%"class.std::vector" = type { %"struct.std::_Vector_base" }
%"struct.std::_Vector_base" = type { %"struct.std::_Vector_base<proxygen::HPACKHeader, std::allocator<proxygen::HPACKHeader>>::_Vector_impl" }
%"struct.std::_Vector_base<proxygen::HPACKHeader, std::allocator<proxygen::HPACKHeader>>::_Vector_impl" = type { %"struct.std::_Vector_base<proxygen::HPACKHeader, std::allocator<proxygen::HPACKHeader>>::_Vector_impl_data" }
%"struct.std::_Vector_base<proxygen::HPACKHeader, std::allocator<proxygen::HPACKHeader>>::_Vector_impl_data" = type { ptr, ptr, ptr }
%"class.folly::F14FastMap" = type { %"class.folly::f14::detail::F14VectorMapImpl" }
%"class.folly::f14::detail::F14VectorMapImpl" = type { %"class.folly::f14::detail::F14BasicMap" }
%"class.folly::f14::detail::F14BasicMap" = type { %"class.folly::f14::detail::F14Table" }
%"class.folly::f14::detail::F14Table" = type { %"class.folly::f14::detail::VectorContainerPolicy", ptr, %"struct.folly::f14::detail::SizeAndChunkShiftAndPackedBegin" }
%"class.folly::f14::detail::VectorContainerPolicy" = type { ptr }
%"struct.folly::f14::detail::SizeAndChunkShiftAndPackedBegin" = type { %"struct.folly::f14::detail::PackedSizeAndChunkShift" }
%"struct.folly::f14::detail::PackedSizeAndChunkShift" = type { i64 }
%"class.std::unique_ptr.7" = type { %"struct.std::__uniq_ptr_data.8" }
%"struct.std::__uniq_ptr_data.8" = type { %"class.std::__uniq_ptr_impl.9" }
%"class.std::__uniq_ptr_impl.9" = type { %"class.std::tuple.10" }
%"class.std::tuple.10" = type { %"struct.std::_Tuple_impl.11" }
%"struct.std::_Tuple_impl.11" = type { %"struct.std::_Head_base.14" }
%"struct.std::_Head_base.14" = type { ptr }
%"class.proxygen::HPACKEncodeBuffer" = type <{ %"class.folly::IOBufQueue", ptr, %"class.folly::io::QueueAppender", i32, i32, i32, [4 x i8] }>
%"class.folly::io::QueueAppender" = type { %"class.folly::IOBufQueue::WritableRangeCache", i64 }
%"class.folly::IOBufQueue::WritableRangeCache" = type { %"struct.folly::IOBufQueue::WritableRangeCacheData", ptr }
%"struct.folly::IOBufQueue::WritableRangeCacheData" = type <{ %"struct.std::pair", i8, [7 x i8] }>
%"struct.std::pair" = type { ptr, ptr }
%"class.std::unordered_map" = type { %"class.std::_Hashtable" }
%"class.std::_Hashtable" = type { ptr, i64, %"struct.std::__detail::_Hash_node_base", i64, %"struct.std::__detail::_Prime_rehash_policy", ptr }
%"struct.std::__detail::_Hash_node_base" = type { ptr }
%"struct.std::__detail::_Prime_rehash_policy" = type { float, i64 }
%"struct.proxygen::QPACKEncoder::OutstandingBlock" = type <{ %"class.std::set", i8, [7 x i8] }>
%"class.std::set" = type { %"class.std::_Rb_tree" }
%"class.std::_Rb_tree" = type { %"struct.std::_Rb_tree<unsigned int, unsigned int, std::_Identity<unsigned int>, std::less<unsigned int>>::_Rb_tree_impl" }
%"struct.std::_Rb_tree<unsigned int, unsigned int, std::_Identity<unsigned int>, std::less<unsigned int>>::_Rb_tree_impl" = type { %"struct.std::_Rb_tree_key_compare", %"struct.std::_Rb_tree_header" }
%"struct.std::_Rb_tree_key_compare" = type { %"struct.std::less" }
%"struct.std::less" = type { i8 }
%"struct.std::_Rb_tree_header" = type { %"struct.std::_Rb_tree_node_base", i64 }
%"struct.std::_Rb_tree_node_base" = type { i32, ptr, ptr, ptr }
%"class.folly::IOBufQueue" = type { %"struct.folly::IOBufQueue::Options", i64, %"class.std::unique_ptr", ptr, ptr, %"struct.folly::IOBufQueue::WritableRangeCacheData", ptr }
%"class.std::unique_ptr" = type { %"struct.std::__uniq_ptr_data" }
%"struct.std::__uniq_ptr_data" = type { %"class.std::__uniq_ptr_impl" }
%"class.std::__uniq_ptr_impl" = type { %"class.std::tuple" }
%"class.std::tuple" = type { %"struct.std::_Tuple_impl" }
%"struct.std::_Tuple_impl" = type { %"struct.std::_Head_base.1" }
%"struct.std::_Head_base.1" = type { ptr }
%"class.proxygen::QPACKContext" = type <{ %"class.proxygen::QPACKHeaderTable", i32, i32, i32, [4 x i8] }>
%"struct.std::pair.32" = type { i8, i32 }
%"class.std::tuple.39" = type { %"struct.std::_Tuple_impl.base", [3 x i8] }
%"struct.std::_Tuple_impl.base" = type <{ %"struct.std::_Tuple_impl.41", %"struct.std::_Head_base.45" }>
%"struct.std::_Tuple_impl.41" = type { %"struct.std::_Tuple_impl.42", %"struct.std::_Head_base.44" }
%"struct.std::_Tuple_impl.42" = type { %"struct.std::_Head_base.43" }
%"struct.std::_Head_base.43" = type { i32 }
%"struct.std::_Head_base.44" = type { i32 }
%"struct.std::_Head_base.45" = type { i8 }

; Function Attrs: mustprogress nounwind uwtable
define linkonce_odr void @_ZNSt10_Head_baseILm2EjLb0EEC2IRjEEOT_(ptr noundef nonnull align 4 dereferenceable(4) %this, ptr noundef nonnull align 4 dereferenceable(4) %__h) unnamed_addr #5 comdat align 2 {
entry:
  %this.addr = alloca ptr, align 8
  %__h.addr = alloca ptr, align 8
  store ptr %this, ptr %this.addr, align 8
  store ptr %__h, ptr %__h.addr, align 8
  %this1 = load ptr, ptr %this.addr, align 8
  %_M_head_impl = getelementptr inbounds %"struct.std::_Head_base.43", ptr %this1, i32 0, i32 0
  %0 = load ptr, ptr %__h.addr, align 8
  %1 = load i32, ptr %0, align 4
  store i32 %1, ptr %_M_head_impl, align 4
  ret void
}

; Function Attrs: mustprogress nounwind uwtable
define linkonce_odr void @_ZNSt10_Head_baseILm1EjLb0EEC2IRjEEOT_(ptr noundef nonnull align 4 dereferenceable(4) %this, ptr noundef nonnull align 4 dereferenceable(4) %__h) unnamed_addr #5 comdat align 2 {
entry:
  %this.addr = alloca ptr, align 8
  %__h.addr = alloca ptr, align 8
  store ptr %this, ptr %this.addr, align 8
  store ptr %__h, ptr %__h.addr, align 8
  %this1 = load ptr, ptr %this.addr, align 8
  %_M_head_impl = getelementptr inbounds %"struct.std::_Head_base.44", ptr %this1, i32 0, i32 0
  %0 = load ptr, ptr %__h.addr, align 8
  %1 = load i32, ptr %0, align 4
  store i32 %1, ptr %_M_head_impl, align 4
  ret void
}

; Function Attrs: mustprogress uwtable
define linkonce_odr void @_ZNSt11_Tuple_implILm2EJjEEC2IRjEEOT_(ptr noundef nonnull align 4 dereferenceable(4) %this, ptr noundef nonnull align 4 dereferenceable(4) %__head) unnamed_addr #4 comdat align 2 {
entry:
  %this.addr = alloca ptr, align 8
  %__head.addr = alloca ptr, align 8
  store ptr %this, ptr %this.addr, align 8
  store ptr %__head, ptr %__head.addr, align 8
  %this1 = load ptr, ptr %this.addr, align 8
  %0 = load ptr, ptr %__head.addr, align 8
  call void @_ZNSt10_Head_baseILm2EjLb0EEC2IRjEEOT_(ptr noundef nonnull align 4 dereferenceable(4) %this1, ptr noundef nonnull align 4 dereferenceable(4) %0)
  ret void
}

; Function Attrs: mustprogress nounwind uwtable
define linkonce_odr void @_ZNSt10_Head_baseILm0EbLb0EEC2IRbEEOT_(ptr noundef nonnull align 1 dereferenceable(1) %this, ptr noundef nonnull align 1 dereferenceable(1) %__h) unnamed_addr #5 comdat align 2 {
entry:
  %this.addr = alloca ptr, align 8
  %__h.addr = alloca ptr, align 8
  store ptr %this, ptr %this.addr, align 8
  store ptr %__h, ptr %__h.addr, align 8
  %this1 = load ptr, ptr %this.addr, align 8
  %_M_head_impl = getelementptr inbounds %"struct.std::_Head_base.45", ptr %this1, i32 0, i32 0
  %0 = load ptr, ptr %__h.addr, align 8
  %1 = load i8, ptr %0, align 1
  %tobool = trunc i8 %1 to i1
  %frombool = zext i1 %tobool to i8
  store i8 %frombool, ptr %_M_head_impl, align 1
  ret void
}

; Function Attrs: mustprogress uwtable
define linkonce_odr void @_ZNSt11_Tuple_implILm1EJjjEEC2IRjJS2_EvEEOT_DpOT0_(ptr noundef nonnull align 4 dereferenceable(8) %this, ptr noundef nonnull align 4 dereferenceable(4) %__head, ptr noundef nonnull align 4 dereferenceable(4) %__tail) unnamed_addr #4 comdat align 2 {
entry:
  %this.addr = alloca ptr, align 8
  %__head.addr = alloca ptr, align 8
  %__tail.addr = alloca ptr, align 8
  store ptr %this, ptr %this.addr, align 8
  store ptr %__head, ptr %__head.addr, align 8
  store ptr %__tail, ptr %__tail.addr, align 8
  %this1 = load ptr, ptr %this.addr, align 8
  %0 = load ptr, ptr %__tail.addr, align 8
  call void @_ZNSt11_Tuple_implILm2EJjEEC2IRjEEOT_(ptr noundef nonnull align 4 dereferenceable(4) %this1, ptr noundef nonnull align 4 dereferenceable(4) %0)
  %1 = getelementptr inbounds i8, ptr %this1, i64 4
  %2 = load ptr, ptr %__head.addr, align 8
  call void @_ZNSt10_Head_baseILm1EjLb0EEC2IRjEEOT_(ptr noundef nonnull align 4 dereferenceable(4) %1, ptr noundef nonnull align 4 dereferenceable(4) %2)
  ret void
}

; Function Attrs: noreturn nounwind uwtable
define linkonce_odr hidden void @__clang_call_terminate(ptr noundef %0) #8 comdat {
  %2 = call ptr @__cxa_begin_catch(ptr %0) #3
  call void @_ZSt9terminatev() #21
  unreachable
}

; Function Attrs: mustprogress uwtable
define linkonce_odr void @_ZNSt11_Tuple_implILm0EJbjjEEC2IRbJRjS3_EvEEOT_DpOT0_(ptr noundef nonnull align 4 dereferenceable(9) %this, ptr noundef nonnull align 1 dereferenceable(1) %__head, ptr noundef nonnull align 4 dereferenceable(4) %__tail, ptr noundef nonnull align 4 dereferenceable(4) %__tail1) unnamed_addr #4 comdat align 2 {
entry:
  %this.addr = alloca ptr, align 8
  %__head.addr = alloca ptr, align 8
  %__tail.addr = alloca ptr, align 8
  %__tail.addr2 = alloca ptr, align 8
  store ptr %this, ptr %this.addr, align 8
  store ptr %__head, ptr %__head.addr, align 8
  store ptr %__tail, ptr %__tail.addr, align 8
  store ptr %__tail1, ptr %__tail.addr2, align 8
  %this3 = load ptr, ptr %this.addr, align 8
  %0 = load ptr, ptr %__tail.addr, align 8
  %1 = load ptr, ptr %__tail.addr2, align 8
  call void @_ZNSt11_Tuple_implILm1EJjjEEC2IRjJS2_EvEEOT_DpOT0_(ptr noundef nonnull align 4 dereferenceable(8) %this3, ptr noundef nonnull align 4 dereferenceable(4) %0, ptr noundef nonnull align 4 dereferenceable(4) %1)
  %2 = getelementptr inbounds i8, ptr %this3, i64 8
  %3 = load ptr, ptr %__head.addr, align 8
  call void @_ZNSt10_Head_baseILm0EbLb0EEC2IRbEEOT_(ptr noundef nonnull align 1 dereferenceable(1) %2, ptr noundef nonnull align 1 dereferenceable(1) %3)
  ret void
}

; Function Attrs: mustprogress nounwind uwtable
define linkonce_odr void @_ZNSt5tupleIJbjjEEC2IJRbRjS3_ELb1ETnNSt9enable_ifIXclsr4_TCCIXT0_EEE29__is_implicitly_constructibleIDpT_EEEbE4typeELb1EEEDpOS5_(ptr noundef nonnull align 4 dereferenceable(9) %this, ptr noundef nonnull align 1 dereferenceable(1) %__elements, ptr noundef nonnull align 4 dereferenceable(4) %__elements1, ptr noundef nonnull align 4 dereferenceable(4) %__elements3) unnamed_addr #5 comdat align 2 personality ptr @__gxx_personality_v0 {
entry:
  %this.addr = alloca ptr, align 8
  %__elements.addr = alloca ptr, align 8
  %__elements.addr2 = alloca ptr, align 8
  %__elements.addr4 = alloca ptr, align 8
  store ptr %this, ptr %this.addr, align 8
  store ptr %__elements, ptr %__elements.addr, align 8
  store ptr %__elements1, ptr %__elements.addr2, align 8
  store ptr %__elements3, ptr %__elements.addr4, align 8
  %this5 = load ptr, ptr %this.addr, align 8
  %0 = load ptr, ptr %__elements.addr, align 8
  %1 = load ptr, ptr %__elements.addr2, align 8
  %2 = load ptr, ptr %__elements.addr4, align 8
  invoke void @_ZNSt11_Tuple_implILm0EJbjjEEC2IRbJRjS3_EvEEOT_DpOT0_(ptr noundef nonnull align 4 dereferenceable(9) %this5, ptr noundef nonnull align 1 dereferenceable(1) %0, ptr noundef nonnull align 4 dereferenceable(4) %1, ptr noundef nonnull align 4 dereferenceable(4) %2)
          to label %invoke.cont unwind label %terminate.lpad

invoke.cont:                                      ; preds = %entry
  ret void

terminate.lpad:                                   ; preds = %entry
  %3 = landingpad { ptr, i32 }
          catch ptr null
  %4 = extractvalue { ptr, i32 } %3, 0
  call void @__clang_call_terminate(ptr %4) #21
  unreachable
}

; Function Attrs: mustprogress nounwind uwtable
define linkonce_odr noundef zeroext i1 @_ZNK8proxygen12QPACKEncoder15allowVulnerableEv(ptr noundef nonnull align 8 dereferenceable(624) %this) #5 comdat align 2 {
entry:
  %this.addr = alloca ptr, align 8
  store ptr %this, ptr %this.addr, align 8
  %this1 = load ptr, ptr %this.addr, align 8
  %numVulnerable_ = getelementptr inbounds %"class.proxygen::QPACKEncoder", ptr %this1, i32 0, i32 9
  %0 = load i32, ptr %numVulnerable_, align 8
  %maxVulnerable_ = getelementptr inbounds %"class.proxygen::QPACKEncoder", ptr %this1, i32 0, i32 8
  %1 = load i32, ptr %maxVulnerable_, align 4
  %cmp = icmp ult i32 %0, %1
  ret i1 %cmp
}

; Function Attrs: mustprogress nounwind uwtable
define noundef zeroext i1 @_ZNK8proxygen12QPACKEncoder23dynamicReferenceAllowedEv(ptr noundef nonnull align 8 dereferenceable(624) %this) #5 align 2 {
entry:
  %this.addr = alloca ptr, align 8
  store ptr %this, ptr %this.addr, align 8
  %this1 = load ptr, ptr %this.addr, align 8
  %numOutstandingBlocks_ = getelementptr inbounds %"class.proxygen::QPACKEncoder", ptr %this1, i32 0, i32 13
  %0 = load i32, ptr %numOutstandingBlocks_, align 8
  %maxNumOutstandingBlocks_ = getelementptr inbounds %"class.proxygen::QPACKEncoder", ptr %this1, i32 0, i32 14
  %1 = load i32, ptr %maxNumOutstandingBlocks_, align 4
  %cmp = icmp ult i32 %0, %1
  ret i1 %cmp
}

; Function Attrs: mustprogress uwtable
define linkonce_odr noundef nonnull align 8 dereferenceable(80) ptr @_ZNK8proxygen12QPACKContext14getStaticTableEv(ptr noundef nonnull align 8 dereferenceable(116) %this) #4 comdat align 2 {
entry:
  %this.addr = alloca ptr, align 8
  store ptr %this, ptr %this.addr, align 8
  %call = call noundef nonnull align 8 dereferenceable(80) ptr @_ZN8proxygen22QPACKStaticHeaderTable3getEv()
  ret ptr %call
}

; Function Attrs: mustprogress uwtable
define void @_ZN8proxygen12QPACKEncoder13getNameIndexQERKNS_15HPACKHeaderNameE(ptr noalias sret(%"class.std::tuple.39") align 4 %agg.result, ptr noundef nonnull align 8 dereferenceable(624) %this, ptr noundef nonnull align 8 dereferenceable(8) %headerName) #4 align 2 {
entry:
  %result.ptr = alloca ptr, align 8
  %this.addr = alloca ptr, align 8
  %headerName.addr = alloca ptr, align 8
  %absoluteNameIndex = alloca i32, align 4
  %nameIndex = alloca i32, align 4
  %isStatic = alloca i8, align 1
  %ref.tmp = alloca %"struct.std::pair.32", align 4
  store ptr %agg.result, ptr %result.ptr, align 8
  store ptr %this, ptr %this.addr, align 8
  store ptr %headerName, ptr %headerName.addr, align 8
  %this1 = load ptr, ptr %this.addr, align 8
  store i32 0, ptr %absoluteNameIndex, align 4
  %add.ptr = getelementptr inbounds i8, ptr %this1, i64 152
  %call = call noundef nonnull align 8 dereferenceable(80) ptr @_ZNK8proxygen12QPACKContext14getStaticTableEv(ptr noundef nonnull align 8 dereferenceable(116) %add.ptr)
  %0 = load ptr, ptr %headerName.addr, align 8
  %call2 = call noundef i32 @_ZNK8proxygen11HeaderTable9nameIndexERKNS_15HPACKHeaderNameE(ptr noundef nonnull align 8 dereferenceable(80) %call, ptr noundef nonnull align 8 dereferenceable(8) %0)
  store i32 %call2, ptr %nameIndex, align 4
  store i8 1, ptr %isStatic, align 1
  %1 = load i32, ptr %nameIndex, align 4
  %cmp = icmp eq i32 %1, 0
  br i1 %cmp, label %land.lhs.true, label %if.end15

land.lhs.true:                                    ; preds = %entry
  %call3 = call noundef zeroext i1 @_ZNK8proxygen12QPACKEncoder23dynamicReferenceAllowedEv(ptr noundef nonnull align 8 dereferenceable(624) %this1)
  br i1 %call3, label %if.then, label %if.end15

if.then:                                          ; preds = %land.lhs.true
  %add.ptr4 = getelementptr inbounds i8, ptr %this1, i64 152
  %table_ = getelementptr inbounds %"class.proxygen::QPACKContext", ptr %add.ptr4, i32 0, i32 0
  %2 = load ptr, ptr %headerName.addr, align 8
  %call5 = call noundef zeroext i1 @_ZNK8proxygen12QPACKEncoder15allowVulnerableEv(ptr noundef nonnull align 8 dereferenceable(624) %this1)
  %call6 = call noundef i32 @_ZNK8proxygen16QPACKHeaderTable9nameIndexERKNS_15HPACKHeaderNameEb(ptr noundef nonnull align 8 dereferenceable(104) %table_, ptr noundef nonnull align 8 dereferenceable(8) %2, i1 noundef zeroext %call5)
  store i32 %call6, ptr %nameIndex, align 4
  %3 = load i32, ptr %nameIndex, align 4
  %cmp7 = icmp ne i32 %3, 0
  br i1 %cmp7, label %if.then8, label %if.end14

if.then8:                                         ; preds = %if.then
  %4 = load i32, ptr %nameIndex, align 4
  %call9 = call i64 @_ZN8proxygen12QPACKEncoder14maybeDuplicateEj(ptr noundef nonnull align 8 dereferenceable(624) %this1, i32 noundef %4)
  store i64 %call9, ptr %ref.tmp, align 4
  %second = getelementptr inbounds %"struct.std::pair.32", ptr %ref.tmp, i32 0, i32 1
  %5 = load i32, ptr %second, align 4
  store i32 %5, ptr %absoluteNameIndex, align 4
  %6 = load i32, ptr %absoluteNameIndex, align 4
  %tobool = icmp ne i32 %6, 0
  br i1 %tobool, label %if.then10, label %if.else

if.then10:                                        ; preds = %if.then8
  store i8 0, ptr %isStatic, align 1
  %add.ptr11 = getelementptr inbounds i8, ptr %this1, i64 152
  %table_12 = getelementptr inbounds %"class.proxygen::QPACKContext", ptr %add.ptr11, i32 0, i32 0
  %7 = load i32, ptr %absoluteNameIndex, align 4
  %call13 = call noundef i32 @_ZNK8proxygen16QPACKHeaderTable18absoluteToRelativeEj(ptr noundef nonnull align 8 dereferenceable(104) %table_12, i32 noundef %7)
  store i32 %call13, ptr %nameIndex, align 4
  br label %if.end

if.else:                                          ; preds = %if.then8
  store i32 0, ptr %nameIndex, align 4
  store i32 0, ptr %absoluteNameIndex, align 4
  br label %if.end

if.end:                                           ; preds = %if.else, %if.then10
  br label %if.end14

if.end14:                                         ; preds = %if.end, %if.then
  br label %if.end15

if.end15:                                         ; preds = %if.end14, %land.lhs.true, %entry
  call void @_ZNSt5tupleIJbjjEEC2IJRbRjS3_ELb1ETnNSt9enable_ifIXclsr4_TCCIXT0_EEE29__is_implicitly_constructibleIDpT_EEEbE4typeELb1EEEDpOS5_(ptr noundef nonnull align 4 dereferenceable(9) %agg.result, ptr noundef nonnull align 1 dereferenceable(1) %isStatic, ptr noundef nonnull align 4 dereferenceable(4) %nameIndex, ptr noundef nonnull align 4 dereferenceable(4) %absoluteNameIndex) #3
  ret void
}