; Function Attrs: mustprogress uwtable
define void @_ZN8proxygen12QPACKEncoder13getNameIndexQERKNS_15HPACKHeaderNameE(ptr noalias nocapture writeonly sret(%"class.std::tuple.39") align 4 %agg.result, ptr noundef nonnull align 8 dereferenceable(624) %this, ptr noundef nonnull align 8 dereferenceable(8) %headerName) local_unnamed_addr #3 align 2 personality ptr @__gxx_personality_v0 {
entry:
  %add.ptr = getelementptr inbounds i8, ptr %this, i64 152
  %call.i = tail call noundef nonnull align 8 dereferenceable(80) ptr @_ZN8proxygen22QPACKStaticHeaderTable3getEv()
  %call2 = tail call noundef i32 @_ZNK8proxygen11HeaderTable9nameIndexERKNS_15HPACKHeaderNameE(ptr noundef nonnull align 8 dereferenceable(80) %call.i, ptr noundef nonnull align 8 dereferenceable(8) %headerName)
  %cmp = icmp eq i32 %call2, 0
  br i1 %cmp, label %land.lhs.true, label %if.end15

land.lhs.true:                                    ; preds = %entry
  %numOutstandingBlocks_.i = getelementptr inbounds i8, ptr %this, i64 616
  %0 = load i32, ptr %numOutstandingBlocks_.i, align 8
  %maxNumOutstandingBlocks_.i = getelementptr inbounds i8, ptr %this, i64 620
  %1 = load i32, ptr %maxNumOutstandingBlocks_.i, align 4
  %cmp.i = icmp ult i32 %0, %1
  br i1 %cmp.i, label %if.then, label %if.end15

if.then:                                          ; preds = %land.lhs.true
  %numVulnerable_.i = getelementptr inbounds i8, ptr %this, i64 528
  %2 = load i32, ptr %numVulnerable_.i, align 8
  %maxVulnerable_.i = getelementptr inbounds i8, ptr %this, i64 524
  %3 = load i32, ptr %maxVulnerable_.i, align 4
  %cmp.i2 = icmp ult i32 %2, %3
  %call6 = tail call noundef i32 @_ZNK8proxygen16QPACKHeaderTable9nameIndexERKNS_15HPACKHeaderNameEb(ptr noundef nonnull align 8 dereferenceable(104) %add.ptr, ptr noundef nonnull align 8 dereferenceable(8) %headerName, i1 noundef zeroext %cmp.i2)
  %cmp7.not = icmp eq i32 %call6, 0
  br i1 %cmp7.not, label %if.end15, label %if.then8

if.then8:                                         ; preds = %if.then
  %call9 = tail call i64 @_ZN8proxygen12QPACKEncoder14maybeDuplicateEj(ptr noundef nonnull align 8 dereferenceable(624) %this, i32 noundef %call6)
  %ref.tmp.sroa.1.0.extract.shift = lshr i64 %call9, 32
  %ref.tmp.sroa.1.0.extract.trunc = trunc i64 %ref.tmp.sroa.1.0.extract.shift to i32
  %tobool.not = icmp eq i32 %ref.tmp.sroa.1.0.extract.trunc, 0
  br i1 %tobool.not, label %if.end15, label %if.then10

if.then10:                                        ; preds = %if.then8
  %call13 = tail call noundef i32 @_ZNK8proxygen16QPACKHeaderTable18absoluteToRelativeEj(ptr noundef nonnull align 8 dereferenceable(104) %add.ptr, i32 noundef %ref.tmp.sroa.1.0.extract.trunc)
  br label %if.end15

if.end15:                                         ; preds = %if.then8, %if.then, %if.then10, %land.lhs.true, %entry
  %absoluteNameIndex.0 = phi i32 [ 0, %if.then ], [ %ref.tmp.sroa.1.0.extract.trunc, %if.then10 ], [ 0, %land.lhs.true ], [ 0, %entry ], [ 0, %if.then8 ]
  %nameIndex.0 = phi i32 [ 0, %if.then ], [ %call13, %if.then10 ], [ 0, %land.lhs.true ], [ %call2, %entry ], [ 0, %if.then8 ]
  %isStatic.0 = phi i8 [ 1, %if.then ], [ 0, %if.then10 ], [ 1, %land.lhs.true ], [ 1, %entry ], [ 1, %if.then8 ]
  store i32 %absoluteNameIndex.0, ptr %agg.result, align 4
  %4 = getelementptr inbounds i8, ptr %agg.result, i64 4
  store i32 %nameIndex.0, ptr %4, align 4
  %5 = getelementptr inbounds i8, ptr %agg.result, i64 8
  store i8 %isStatic.0, ptr %5, align 4
  ret void
}